target datalayout = "e-m:e-p270:32:32-p271:32:32-p272:64:64-i64:64-i128:128-f80:128-n8:16:32:64-S128"
target triple = "x86_64-pc-linux-gnu"

%"class.clang::DeclAccessPair" = type { %"struct.llvm::support::detail::packed_endian_specific_integral" }
%"struct.llvm::support::detail::packed_endian_specific_integral" = type { %struct.anon }
%struct.anon = type { [8 x i8] }
%"class.clang::SourceLocation" = type { i32 }
%"class.llvm::SmallVectorBase" = type { ptr, i32, i32 }
%"struct.clang::DeductionFailureInfo" = type { i16, ptr, [32 x i8] }
%"struct.clang::TemplateSpecCandidate" = type { %"class.clang::DeclAccessPair", ptr, %"struct.clang::DeductionFailureInfo" }
%"class.clang::TemplateSpecCandidateSet" = type <{ %"class.llvm::SmallVector.1486", %"class.clang::SourceLocation", i8, [3 x i8] }>
%"class.llvm::SmallVector.1486" = type { %"class.llvm::SmallVectorImpl.1487", %"struct.llvm::SmallVectorStorage.1490" }
%"class.llvm::SmallVectorImpl.1487" = type { %"class.llvm::SmallVectorTemplateBase.1488" }
%"class.llvm::SmallVectorTemplateBase.1488" = type { %"class.llvm::SmallVectorTemplateCommon.1489" }
%"class.llvm::SmallVectorTemplateCommon.1489" = type { %"class.llvm::SmallVectorBase" }
%"struct.llvm::SmallVectorStorage.1490" = type { [1024 x i8] }

; Function Attrs: mustprogress nounwind uwtable
define linkonce_odr hidden noundef ptr @_ZN4llvm25SmallVectorTemplateCommonIN5clang21TemplateSpecCandidateEvE3endEv(ptr noundef nonnull align 8 dereferenceable(16) %0) #0 comdat align 2 {
  %2 = alloca ptr, align 8
  store ptr %0, ptr %2, align 8
  %3 = load ptr, ptr %2, align 8
  %4 = call noundef ptr @_ZN4llvm25SmallVectorTemplateCommonIN5clang21TemplateSpecCandidateEvE5beginEv(ptr noundef nonnull align 8 dereferenceable(16) %3)
  %5 = call noundef i64 @_ZNK4llvm15SmallVectorBaseIjE4sizeEv(ptr noundef nonnull align 8 dereferenceable(16) %3)
  %6 = getelementptr inbounds %"struct.clang::TemplateSpecCandidate", ptr %4, i64 %5
  ret ptr %6
}

; Function Attrs: mustprogress nounwind uwtable
define linkonce_odr hidden noundef ptr @_ZN4llvm25SmallVectorTemplateCommonIN5clang21TemplateSpecCandidateEvE5beginEv(ptr noundef nonnull align 8 dereferenceable(16) %0) #0 comdat align 2 {
  %2 = alloca ptr, align 8
  store ptr %0, ptr %2, align 8
  %3 = load ptr, ptr %2, align 8
  %4 = getelementptr inbounds nuw %"class.llvm::SmallVectorBase", ptr %3, i32 0, i32 0
  %5 = load ptr, ptr %4, align 8
  ret ptr %5
}

; Function Attrs: mustprogress nounwind uwtable
define linkonce_odr hidden noundef ptr @_ZN5clang24TemplateSpecCandidateSet3endEv(ptr noundef nonnull align 8 dereferenceable(1045) %0) #0 comdat align 2 {
  %2 = alloca ptr, align 8
  store ptr %0, ptr %2, align 8
  %3 = load ptr, ptr %2, align 8
  %4 = getelementptr inbounds nuw %"class.clang::TemplateSpecCandidateSet", ptr %3, i32 0, i32 0
  %5 = call noundef ptr @_ZN4llvm25SmallVectorTemplateCommonIN5clang21TemplateSpecCandidateEvE3endEv(ptr noundef nonnull align 8 dereferenceable(16) %4)
  ret ptr %5
}

; Function Attrs: mustprogress nounwind uwtable
define linkonce_odr hidden noundef ptr @_ZN5clang24TemplateSpecCandidateSet5beginEv(ptr noundef nonnull align 8 dereferenceable(1045) %0) #0 comdat align 2 {
  %2 = alloca ptr, align 8
  store ptr %0, ptr %2, align 8
  %3 = load ptr, ptr %2, align 8
  %4 = getelementptr inbounds nuw %"class.clang::TemplateSpecCandidateSet", ptr %3, i32 0, i32 0
  %5 = call noundef ptr @_ZN4llvm25SmallVectorTemplateCommonIN5clang21TemplateSpecCandidateEvE5beginEv(ptr noundef nonnull align 8 dereferenceable(16) %4)
  ret ptr %5
}

; Function Attrs: mustprogress nounwind uwtable
define dso_local void @_ZN5clang24TemplateSpecCandidateSet17destroyCandidatesEv(ptr noundef nonnull align 8 dereferenceable(1045) %0) #0 align 2 {
  %2 = alloca ptr, align 8
  %3 = alloca ptr, align 8
  %4 = alloca ptr, align 8
  store ptr %0, ptr %2, align 8
  %5 = load ptr, ptr %2, align 8
  %6 = call noundef ptr @_ZN5clang24TemplateSpecCandidateSet5beginEv(ptr noundef nonnull align 8 dereferenceable(1045) %5)
  store ptr %6, ptr %3, align 8
  %7 = call noundef ptr @_ZN5clang24TemplateSpecCandidateSet3endEv(ptr noundef nonnull align 8 dereferenceable(1045) %5)
  store ptr %7, ptr %4, align 8
  br label %8

8:                                                ; preds = %15, %1
  %9 = load ptr, ptr %3, align 8
  %10 = load ptr, ptr %4, align 8
  %11 = icmp ne ptr %9, %10
  br i1 %11, label %12, label %18

12:                                               ; preds = %8
  %13 = load ptr, ptr %3, align 8
  %14 = getelementptr inbounds nuw %"struct.clang::TemplateSpecCandidate", ptr %13, i32 0, i32 2
  call void @_ZN5clang20DeductionFailureInfo7DestroyEv(ptr noundef nonnull align 8 dereferenceable(48) %14)
  br label %15

15:                                               ; preds = %12
  %16 = load ptr, ptr %3, align 8
  %17 = getelementptr inbounds %"struct.clang::TemplateSpecCandidate", ptr %16, i32 1
  store ptr %17, ptr %3, align 8
  br label %8, !llvm.loop !71

18:                                               ; preds = %8
  ret void
}