; Function Attrs: mustprogress nounwind uwtable
define dso_local void @_ZN5clang24TemplateSpecCandidateSet17destroyCandidatesEv(ptr noundef nonnull align 8 dereferenceable(1045) %0) local_unnamed_addr #4 align 2 {
  %2 = load ptr, ptr %0, align 8
  %3 = tail call noundef i64 @_ZNK4llvm15SmallVectorBaseIjE4sizeEv(ptr noundef nonnull align 8 dereferenceable(16) %0) #26
  %4 = getelementptr inbounds %"struct.clang::TemplateSpecCandidate", ptr %2, i64 %3
  %.not5 = icmp eq i64 %3, 0
  br i1 %.not5, label %._crit_edge, label %.lr.ph

.lr.ph:                                           ; preds = %1, %.lr.ph
  %.06 = phi ptr [ %6, %.lr.ph ], [ %2, %1 ]
  %5 = getelementptr inbounds nuw i8, ptr %.06, i64 16
  tail call void @_ZN5clang20DeductionFailureInfo7DestroyEv(ptr noundef nonnull align 8 dereferenceable(48) %5)
  %6 = getelementptr inbounds i8, ptr %.06, i64 64
  %.not = icmp eq ptr %6, %4
  br i1 %.not, label %._crit_edge, label %.lr.ph, !llvm.loop !274

._crit_edge:                                      ; preds = %.lr.ph, %1
  ret void
}